; Function Attrs: mustprogress nounwind uwtable
define void @_ZN4LIEF5dwarf5types15RValueReferenceD2Ev(ptr noundef nonnull align 8 captures(none) dereferenceable(32) initializes((0, 8)) %0) unnamed_addr #3 align 2 {
  store ptr getelementptr inbounds nuw inrange(-16, 16) (i8, ptr @_ZTVN4LIEF5dwarf5types15RValueReferenceE, i64 16), ptr %0, align 8, !tbaa !32
  %2 = getelementptr inbounds nuw i8, ptr %0, i64 24
  %3 = load ptr, ptr %2, align 8, !tbaa !117
  %.not.i = icmp eq ptr %3, null
  br i1 %.not.i, label %_ZNSt10unique_ptrIN4LIEF5dwarf4TypeESt14default_deleteIS2_EED2Ev.exit, label %_ZNKSt14default_deleteIN4LIEF5dwarf4TypeEEclEPS2_.exit.i

_ZNKSt14default_deleteIN4LIEF5dwarf4TypeEEclEPS2_.exit.i: ; preds = %1
  %4 = load ptr, ptr %3, align 8, !tbaa !32
  %5 = getelementptr inbounds nuw i8, ptr %4, i64 8
  %6 = load ptr, ptr %5, align 8
  tail call void %6(ptr noundef nonnull align 8 dereferenceable(24) %3) #25
  br label %_ZNSt10unique_ptrIN4LIEF5dwarf4TypeESt14default_deleteIS2_EED2Ev.exit

_ZNSt10unique_ptrIN4LIEF5dwarf4TypeESt14default_deleteIS2_EED2Ev.exit: ; preds = %1, %_ZNKSt14default_deleteIN4LIEF5dwarf4TypeEEclEPS2_.exit.i
  store ptr null, ptr %2, align 8, !tbaa !117
  store ptr getelementptr inbounds nuw inrange(-16, 16) (i8, ptr @_ZTVN4LIEF5dwarf4TypeE, i64 16), ptr %0, align 8, !tbaa !32
  %7 = getelementptr inbounds nuw i8, ptr %0, i64 8
  %8 = getelementptr inbounds nuw i8, ptr %0, i64 16
  %9 = load i8, ptr %8, align 8, !tbaa !105, !range !106, !noundef !107
  %10 = trunc nuw i8 %9 to i1
  br i1 %10, label %11, label %_ZN4LIEF5dwarf4TypeD2Ev.exit

11:                                               ; preds = %_ZNSt10unique_ptrIN4LIEF5dwarf4TypeESt14default_deleteIS2_EED2Ev.exit
  %12 = load ptr, ptr %7, align 8, !tbaa !103
  %.not.i.i.i = icmp eq ptr %12, null
  br i1 %.not.i.i.i, label %14, label %13

13:                                               ; preds = %11
  tail call void @_ZdlPvm(ptr noundef nonnull %12, i64 noundef 1) #24
  br label %14

14:                                               ; preds = %13, %11
  store ptr null, ptr %7, align 8, !tbaa !103
  br label %_ZN4LIEF5dwarf4TypeD2Ev.exit

_ZN4LIEF5dwarf4TypeD2Ev.exit:                     ; preds = %_ZNSt10unique_ptrIN4LIEF5dwarf4TypeESt14default_deleteIS2_EED2Ev.exit, %14
  ret void
}